; Function Attrs: mustprogress nounwind uwtable
define internal void @_ZN12_GLOBAL__N_125RegReductionPriorityQueueINS_13bu_ls_rr_sortEED0Ev(ptr noundef nonnull align 8 dereferenceable(176) %0) unnamed_addr #0 align 2 {
  store ptr getelementptr inbounds inrange(-16, 136) (i8, ptr @_ZTVN12_GLOBAL__N_118RegReductionPQBaseE, i64 16), ptr %0, align 8
  %2 = getelementptr inbounds nuw i8, ptr %0, i64 144
  %3 = load ptr, ptr %2, align 8
  %.not.i.i.i.i.i = icmp eq ptr %3, null
  br i1 %.not.i.i.i.i.i, label %_ZNSt6vectorIjSaIjEED2Ev.exit.i.i, label %4

4:                                                ; preds = %1
  %5 = getelementptr inbounds i8, ptr %0, i64 160
  %6 = load ptr, ptr %5, align 8
  %7 = ptrtoint ptr %6 to i64
  %8 = ptrtoint ptr %3 to i64
  %9 = sub i64 %7, %8
  tail call void @_ZdlPvm(ptr noundef nonnull %3, i64 noundef %9) #26
  br label %_ZNSt6vectorIjSaIjEED2Ev.exit.i.i

_ZNSt6vectorIjSaIjEED2Ev.exit.i.i:                ; preds = %4, %1
  %10 = getelementptr inbounds nuw i8, ptr %0, i64 120
  %11 = load ptr, ptr %10, align 8
  %.not.i.i.i1.i.i = icmp eq ptr %11, null
  br i1 %.not.i.i.i1.i.i, label %_ZNSt6vectorIjSaIjEED2Ev.exit2.i.i, label %12

12:                                               ; preds = %_ZNSt6vectorIjSaIjEED2Ev.exit.i.i
  %13 = getelementptr inbounds i8, ptr %0, i64 136
  %14 = load ptr, ptr %13, align 8
  %15 = ptrtoint ptr %14 to i64
  %16 = ptrtoint ptr %11 to i64
  %17 = sub i64 %15, %16
  tail call void @_ZdlPvm(ptr noundef nonnull %11, i64 noundef %17) #26
  br label %_ZNSt6vectorIjSaIjEED2Ev.exit2.i.i

_ZNSt6vectorIjSaIjEED2Ev.exit2.i.i:               ; preds = %12, %_ZNSt6vectorIjSaIjEED2Ev.exit.i.i
  %18 = getelementptr inbounds nuw i8, ptr %0, i64 96
  %19 = load ptr, ptr %18, align 8
  %.not.i.i.i3.i.i = icmp eq ptr %19, null
  br i1 %.not.i.i.i3.i.i, label %_ZNSt6vectorIjSaIjEED2Ev.exit4.i.i, label %20

20:                                               ; preds = %_ZNSt6vectorIjSaIjEED2Ev.exit2.i.i
  %21 = getelementptr inbounds i8, ptr %0, i64 112
  %22 = load ptr, ptr %21, align 8
  %23 = ptrtoint ptr %22 to i64
  %24 = ptrtoint ptr %19 to i64
  %25 = sub i64 %23, %24
  tail call void @_ZdlPvm(ptr noundef nonnull %19, i64 noundef %25) #26
  br label %_ZNSt6vectorIjSaIjEED2Ev.exit4.i.i

_ZNSt6vectorIjSaIjEED2Ev.exit4.i.i:               ; preds = %20, %_ZNSt6vectorIjSaIjEED2Ev.exit2.i.i
  %26 = getelementptr inbounds nuw i8, ptr %0, i64 16
  %27 = load ptr, ptr %26, align 8
  %.not.i.i.i5.i.i = icmp eq ptr %27, null
  br i1 %.not.i.i.i5.i.i, label %_ZN12_GLOBAL__N_125RegReductionPriorityQueueINS_13bu_ls_rr_sortEED2Ev.exit, label %28

28:                                               ; preds = %_ZNSt6vectorIjSaIjEED2Ev.exit4.i.i
  %29 = getelementptr inbounds i8, ptr %0, i64 32
  %30 = load ptr, ptr %29, align 8
  %31 = ptrtoint ptr %30 to i64
  %32 = ptrtoint ptr %27 to i64
  %33 = sub i64 %31, %32
  tail call void @_ZdlPvm(ptr noundef nonnull %27, i64 noundef %33) #26
  br label %_ZN12_GLOBAL__N_125RegReductionPriorityQueueINS_13bu_ls_rr_sortEED2Ev.exit

_ZN12_GLOBAL__N_125RegReductionPriorityQueueINS_13bu_ls_rr_sortEED2Ev.exit: ; preds = %_ZNSt6vectorIjSaIjEED2Ev.exit4.i.i, %28
  tail call void @_ZdlPvm(ptr noundef nonnull %0, i64 noundef 176) #26
  ret void
}